target datalayout = "e-m:e-p270:32:32-p271:32:32-p272:64:64-i64:64-i128:128-f80:128-n8:16:32:64-S128"
target triple = "x86_64-unknown-linux-gnu"

; Function Attrs: mustprogress uwtable
define noundef ptr @_ZN8proxygen16SimpleController18createErrorHandlerEjRKNSt7__cxx1112basic_stringIcSt11char_traitsIcESaIcEEEPKNS_13HTTPErrorPageE(ptr noundef nonnull align 8 dereferenceable(16) %this, i32 noundef %statusCode, ptr noundef nonnull align 8 dereferenceable(32) %statusMessage, ptr noundef %errorPage) #5 align 2 personality ptr @__gxx_personality_v0 {
entry:
  %this.addr = alloca ptr, align 8
  %statusCode.addr = alloca i32, align 4
  %statusMessage.addr = alloca ptr, align 8
  %errorPage.addr = alloca ptr, align 8
  %exn.slot = alloca ptr, align 8
  %ehselector.slot = alloca i32, align 4
  store ptr %this, ptr %this.addr, align 8
  store i32 %statusCode, ptr %statusCode.addr, align 4
  store ptr %statusMessage, ptr %statusMessage.addr, align 8
  store ptr %errorPage, ptr %errorPage.addr, align 8
  %call = call noalias noundef nonnull ptr @_Znwm(i64 noundef 64) #15
  %0 = load i32, ptr %statusCode.addr, align 4
  %1 = load ptr, ptr %statusMessage.addr, align 8
  %2 = load ptr, ptr %errorPage.addr, align 8
  invoke void @_ZN8proxygen25HTTPDirectResponseHandlerC1EjRKNSt7__cxx1112basic_stringIcSt11char_traitsIcESaIcEEEPKNS_13HTTPErrorPageE(ptr noundef nonnull align 8 dereferenceable(61) %call, i32 noundef %0, ptr noundef nonnull align 8 dereferenceable(32) %1, ptr noundef %2)
          to label %invoke.cont unwind label %lpad

invoke.cont:                                      ; preds = %entry
  ret ptr %call

lpad:                                             ; preds = %entry
  %3 = landingpad { ptr, i32 }
          cleanup
  %4 = extractvalue { ptr, i32 } %3, 0
  store ptr %4, ptr %exn.slot, align 8
  %5 = extractvalue { ptr, i32 } %3, 1
  store i32 %5, ptr %ehselector.slot, align 4
  call void @_ZdlPv(ptr noundef %call) #16
  br label %eh.resume

eh.resume:                                        ; preds = %lpad
  %exn = load ptr, ptr %exn.slot, align 8
  %sel = load i32, ptr %ehselector.slot, align 4
  %lpad.val = insertvalue { ptr, i32 } poison, ptr %exn, 0
  %lpad.val2 = insertvalue { ptr, i32 } %lpad.val, i32 %sel, 1
  resume { ptr, i32 } %lpad.val2
}