; Function Attrs: mustprogress uwtable
define noundef nonnull ptr @_ZN8proxygen16SimpleController18createErrorHandlerEjRKNSt7__cxx1112basic_stringIcSt11char_traitsIcESaIcEEEPKNS_13HTTPErrorPageE(ptr nocapture noundef nonnull readnone align 8 dereferenceable(16) %this, i32 noundef %statusCode, ptr noundef nonnull align 8 dereferenceable(32) %statusMessage, ptr noundef %errorPage) local_unnamed_addr #4 align 2 personality ptr @__gxx_personality_v0 {
entry:
  %call = tail call noalias noundef nonnull dereferenceable(64) ptr @_Znwm(i64 noundef 64) #15
  invoke void @_ZN8proxygen25HTTPDirectResponseHandlerC1EjRKNSt7__cxx1112basic_stringIcSt11char_traitsIcESaIcEEEPKNS_13HTTPErrorPageE(ptr noundef nonnull align 8 dereferenceable(61) %call, i32 noundef %statusCode, ptr noundef nonnull align 8 dereferenceable(32) %statusMessage, ptr noundef %errorPage)
          to label %invoke.cont unwind label %lpad

invoke.cont:                                      ; preds = %entry
  ret ptr %call

lpad:                                             ; preds = %entry
  %0 = landingpad { ptr, i32 }
          cleanup
  tail call void @_ZdlPv(ptr noundef nonnull %call) #16
  resume { ptr, i32 } %0
}